; Function Attrs: mustprogress nofree norecurse nosync nounwind willreturn memory(read, inaccessiblemem: none) uwtable
define dso_local noundef i32 @_ZN4llvm15StatepointOpers21getNumGcMapEntriesIdxEv(ptr nocapture noundef nonnull readonly align 8 dereferenceable(12) %0) local_unnamed_addr #4 align 2 {
  %2 = load ptr, ptr %0, align 8
  %3 = getelementptr inbounds nuw i8, ptr %0, i64 8
  %4 = load i32, ptr %3, align 8
  %5 = add i32 %4, 2
  %6 = getelementptr inbounds nuw i8, ptr %2, i64 32
  %7 = load ptr, ptr %6, align 8
  %8 = zext i32 %5 to i64
  %9 = getelementptr inbounds %"class.llvm::MachineOperand", ptr %7, i64 %8, i32 3
  %10 = load i64, ptr %9, align 8
  %11 = trunc i64 %10 to i32
  %12 = add i32 %4, 9
  %13 = add i32 %12, %11
  %14 = zext i32 %13 to i64
  %15 = getelementptr inbounds %"class.llvm::MachineOperand", ptr %7, i64 %14, i32 3
  %16 = load i64, ptr %15, align 8
  %17 = trunc i64 %16 to i32
  %.not7.i.i = icmp eq i32 %17, 0
  br i1 %.not7.i.i, label %_ZN4llvm15StatepointOpers14getNumGCPtrIdxEv.exit.i, label %.lr.ph.i.i

.lr.ph.i.i:                                       ; preds = %1, %_ZN4llvm9StackMaps17getNextMetaArgIdxEPKNS_12MachineInstrEj.exit.i.i
  %.09.i.i = phi i32 [ %18, %_ZN4llvm9StackMaps17getNextMetaArgIdxEPKNS_12MachineInstrEj.exit.i.i ], [ %17, %1 ]
  %.05.in8.i.i = phi i32 [ %.0.i.i.i, %_ZN4llvm9StackMaps17getNextMetaArgIdxEPKNS_12MachineInstrEj.exit.i.i ], [ %13, %1 ]
  %.05.i.i = add i32 %.05.in8.i.i, 1
  %18 = add i32 %.09.i.i, -1
  %19 = zext i32 %.05.i.i to i64
  %20 = getelementptr inbounds %"class.llvm::MachineOperand", ptr %7, i64 %19
  %21 = load i32, ptr %20, align 8
  %22 = and i32 %21, 255
  %23 = icmp eq i32 %22, 1
  br i1 %23, label %24, label %_ZN4llvm9StackMaps17getNextMetaArgIdxEPKNS_12MachineInstrEj.exit.i.i

24:                                               ; preds = %.lr.ph.i.i
  %25 = getelementptr inbounds nuw i8, ptr %20, i64 16
  %26 = load i64, ptr %25, align 8
  switch i64 %26, label %27 [
    i64 0, label %28
    i64 1, label %30
    i64 2, label %32
  ]

27:                                               ; preds = %24
  unreachable

28:                                               ; preds = %24
  %29 = add i32 %.05.in8.i.i, 3
  br label %_ZN4llvm9StackMaps17getNextMetaArgIdxEPKNS_12MachineInstrEj.exit.i.i

30:                                               ; preds = %24
  %31 = add i32 %.05.in8.i.i, 4
  br label %_ZN4llvm9StackMaps17getNextMetaArgIdxEPKNS_12MachineInstrEj.exit.i.i

32:                                               ; preds = %24
  %33 = add i32 %.05.in8.i.i, 2
  br label %_ZN4llvm9StackMaps17getNextMetaArgIdxEPKNS_12MachineInstrEj.exit.i.i

_ZN4llvm9StackMaps17getNextMetaArgIdxEPKNS_12MachineInstrEj.exit.i.i: ; preds = %32, %30, %28, %.lr.ph.i.i
  %.0.i.i.i = phi i32 [ %33, %32 ], [ %31, %30 ], [ %29, %28 ], [ %.05.i.i, %.lr.ph.i.i ]
  %.not.i.i = icmp eq i32 %18, 0
  br i1 %.not.i.i, label %_ZN4llvm15StatepointOpers14getNumGCPtrIdxEv.exit.i, label %.lr.ph.i.i, !llvm.loop !6

_ZN4llvm15StatepointOpers14getNumGCPtrIdxEv.exit.i: ; preds = %_ZN4llvm9StackMaps17getNextMetaArgIdxEPKNS_12MachineInstrEj.exit.i.i, %1
  %.05.in.lcssa.i.i = phi i32 [ %13, %1 ], [ %.0.i.i.i, %_ZN4llvm9StackMaps17getNextMetaArgIdxEPKNS_12MachineInstrEj.exit.i.i ]
  %34 = add i32 %.05.in.lcssa.i.i, 2
  %35 = zext i32 %34 to i64
  %36 = getelementptr inbounds %"class.llvm::MachineOperand", ptr %7, i64 %35, i32 3
  %37 = load i64, ptr %36, align 8
  %38 = trunc i64 %37 to i32
  %39 = add i32 %.05.in.lcssa.i.i, 3
  %.not7.i = icmp eq i32 %38, 0
  br i1 %.not7.i, label %_ZN4llvm15StatepointOpers15getNumAllocaIdxEv.exit, label %.lr.ph.i

.lr.ph.i:                                         ; preds = %_ZN4llvm15StatepointOpers14getNumGCPtrIdxEv.exit.i, %_ZN4llvm9StackMaps17getNextMetaArgIdxEPKNS_12MachineInstrEj.exit.i
  %.09.i = phi i32 [ %40, %_ZN4llvm9StackMaps17getNextMetaArgIdxEPKNS_12MachineInstrEj.exit.i ], [ %38, %_ZN4llvm15StatepointOpers14getNumGCPtrIdxEv.exit.i ]
  %.058.i = phi i32 [ %56, %_ZN4llvm9StackMaps17getNextMetaArgIdxEPKNS_12MachineInstrEj.exit.i ], [ %39, %_ZN4llvm15StatepointOpers14getNumGCPtrIdxEv.exit.i ]
  %40 = add i32 %.09.i, -1
  %41 = zext i32 %.058.i to i64
  %42 = getelementptr inbounds %"class.llvm::MachineOperand", ptr %7, i64 %41
  %43 = load i32, ptr %42, align 8
  %44 = and i32 %43, 255
  %45 = icmp eq i32 %44, 1
  br i1 %45, label %46, label %_ZN4llvm9StackMaps17getNextMetaArgIdxEPKNS_12MachineInstrEj.exit.i

46:                                               ; preds = %.lr.ph.i
  %47 = getelementptr inbounds nuw i8, ptr %42, i64 16
  %48 = load i64, ptr %47, align 8
  switch i64 %48, label %49 [
    i64 0, label %50
    i64 1, label %52
    i64 2, label %54
  ]

49:                                               ; preds = %46
  unreachable

50:                                               ; preds = %46
  %51 = add i32 %.058.i, 2
  br label %_ZN4llvm9StackMaps17getNextMetaArgIdxEPKNS_12MachineInstrEj.exit.i

52:                                               ; preds = %46
  %53 = add i32 %.058.i, 3
  br label %_ZN4llvm9StackMaps17getNextMetaArgIdxEPKNS_12MachineInstrEj.exit.i

54:                                               ; preds = %46
  %55 = add i32 %.058.i, 1
  br label %_ZN4llvm9StackMaps17getNextMetaArgIdxEPKNS_12MachineInstrEj.exit.i

_ZN4llvm9StackMaps17getNextMetaArgIdxEPKNS_12MachineInstrEj.exit.i: ; preds = %54, %52, %50, %.lr.ph.i
  %.0.i.i = phi i32 [ %55, %54 ], [ %53, %52 ], [ %51, %50 ], [ %.058.i, %.lr.ph.i ]
  %56 = add i32 %.0.i.i, 1
  %.not.i = icmp eq i32 %40, 0
  br i1 %.not.i, label %_ZN4llvm15StatepointOpers15getNumAllocaIdxEv.exit, label %.lr.ph.i, !llvm.loop !7

_ZN4llvm15StatepointOpers15getNumAllocaIdxEv.exit: ; preds = %_ZN4llvm9StackMaps17getNextMetaArgIdxEPKNS_12MachineInstrEj.exit.i, %_ZN4llvm15StatepointOpers14getNumGCPtrIdxEv.exit.i
  %.05.lcssa.i = phi i32 [ %39, %_ZN4llvm15StatepointOpers14getNumGCPtrIdxEv.exit.i ], [ %56, %_ZN4llvm9StackMaps17getNextMetaArgIdxEPKNS_12MachineInstrEj.exit.i ]
  %57 = add i32 %.05.lcssa.i, 1
  %58 = zext i32 %57 to i64
  %59 = getelementptr inbounds %"class.llvm::MachineOperand", ptr %7, i64 %58, i32 3
  %60 = load i64, ptr %59, align 8
  %61 = trunc i64 %60 to i32
  %62 = add i32 %.05.lcssa.i, 2
  %.not7 = icmp eq i32 %61, 0
  br i1 %.not7, label %._crit_edge, label %.lr.ph

.lr.ph:                                           ; preds = %_ZN4llvm15StatepointOpers15getNumAllocaIdxEv.exit, %_ZN4llvm9StackMaps17getNextMetaArgIdxEPKNS_12MachineInstrEj.exit
  %.09 = phi i32 [ %63, %_ZN4llvm9StackMaps17getNextMetaArgIdxEPKNS_12MachineInstrEj.exit ], [ %61, %_ZN4llvm15StatepointOpers15getNumAllocaIdxEv.exit ]
  %.058 = phi i32 [ %79, %_ZN4llvm9StackMaps17getNextMetaArgIdxEPKNS_12MachineInstrEj.exit ], [ %62, %_ZN4llvm15StatepointOpers15getNumAllocaIdxEv.exit ]
  %63 = add i32 %.09, -1
  %64 = zext i32 %.058 to i64
  %65 = getelementptr inbounds %"class.llvm::MachineOperand", ptr %7, i64 %64
  %66 = load i32, ptr %65, align 8
  %67 = and i32 %66, 255
  %68 = icmp eq i32 %67, 1
  br i1 %68, label %69, label %_ZN4llvm9StackMaps17getNextMetaArgIdxEPKNS_12MachineInstrEj.exit

69:                                               ; preds = %.lr.ph
  %70 = getelementptr inbounds nuw i8, ptr %65, i64 16
  %71 = load i64, ptr %70, align 8
  switch i64 %71, label %72 [
    i64 0, label %73
    i64 1, label %75
    i64 2, label %77
  ]

72:                                               ; preds = %69
  unreachable

73:                                               ; preds = %69
  %74 = add i32 %.058, 2
  br label %_ZN4llvm9StackMaps17getNextMetaArgIdxEPKNS_12MachineInstrEj.exit

75:                                               ; preds = %69
  %76 = add i32 %.058, 3
  br label %_ZN4llvm9StackMaps17getNextMetaArgIdxEPKNS_12MachineInstrEj.exit

77:                                               ; preds = %69
  %78 = add i32 %.058, 1
  br label %_ZN4llvm9StackMaps17getNextMetaArgIdxEPKNS_12MachineInstrEj.exit

_ZN4llvm9StackMaps17getNextMetaArgIdxEPKNS_12MachineInstrEj.exit: ; preds = %.lr.ph, %73, %75, %77
  %.0.i = phi i32 [ %78, %77 ], [ %76, %75 ], [ %74, %73 ], [ %.058, %.lr.ph ]
  %79 = add i32 %.0.i, 1
  %.not = icmp eq i32 %63, 0
  br i1 %.not, label %._crit_edge, label %.lr.ph, !llvm.loop !8

._crit_edge:                                      ; preds = %_ZN4llvm9StackMaps17getNextMetaArgIdxEPKNS_12MachineInstrEj.exit, %_ZN4llvm15StatepointOpers15getNumAllocaIdxEv.exit
  %.05.lcssa = phi i32 [ %62, %_ZN4llvm15StatepointOpers15getNumAllocaIdxEv.exit ], [ %79, %_ZN4llvm9StackMaps17getNextMetaArgIdxEPKNS_12MachineInstrEj.exit ]
  %80 = add i32 %.05.lcssa, 1
  ret i32 %80
}